target datalayout = "e-m:e-p270:32:32-p271:32:32-p272:64:64-i64:64-i128:128-f80:128-n8:16:32:64-S128"
target triple = "x86_64-pc-linux-gnu"

%"class.duckdb_apache::thrift::TBase" = type { ptr }
%"class.duckdb_parquet::DecimalType" = type { %"class.duckdb_apache::thrift::TBase", i32, i32 }
%"class.duckdb_parquet::TimeUnit" = type <{ %"class.duckdb_apache::thrift::TBase", %"class.duckdb_parquet::MilliSeconds", %"class.duckdb_parquet::MicroSeconds", %"class.duckdb_parquet::NanoSeconds", %"struct.duckdb_parquet::_TimeUnit__isset", [7 x i8] }>
%"class.duckdb_parquet::MilliSeconds" = type { %"class.duckdb_apache::thrift::TBase" }
%"class.duckdb_parquet::MicroSeconds" = type { %"class.duckdb_apache::thrift::TBase" }
%"class.duckdb_parquet::NanoSeconds" = type { %"class.duckdb_apache::thrift::TBase" }
%"struct.duckdb_parquet::_TimeUnit__isset" = type { i8 }
%"class.duckdb_parquet::TimestampType" = type { %"class.duckdb_apache::thrift::TBase", i8, [7 x i8], %"class.duckdb_parquet::TimeUnit" }
%"class.duckdb_parquet::TimeType" = type { %"class.duckdb_apache::thrift::TBase", i8, [7 x i8], %"class.duckdb_parquet::TimeUnit" }
%"class.duckdb_parquet::IntType" = type <{ %"class.duckdb_apache::thrift::TBase", i8, i8, [6 x i8] }>
%"class.duckdb_parquet::LogicalType" = type <{ %"class.duckdb_apache::thrift::TBase", %"class.duckdb_parquet::StringType", %"class.duckdb_parquet::MapType", %"class.duckdb_parquet::ListType", %"class.duckdb_parquet::EnumType", %"class.duckdb_parquet::DecimalType", %"class.duckdb_parquet::DateType", %"class.duckdb_parquet::TimeType", %"class.duckdb_parquet::TimestampType", %"class.duckdb_parquet::IntType", %"class.duckdb_parquet::NullType", %"class.duckdb_parquet::JsonType", %"class.duckdb_parquet::BsonType", %"class.duckdb_parquet::UUIDType", %"class.duckdb_parquet::Float16Type", %"struct.duckdb_parquet::_LogicalType__isset", [6 x i8] }>
%"class.duckdb_parquet::StringType" = type { %"class.duckdb_apache::thrift::TBase" }
%"class.duckdb_parquet::MapType" = type { %"class.duckdb_apache::thrift::TBase" }
%"class.duckdb_parquet::ListType" = type { %"class.duckdb_apache::thrift::TBase" }
%"class.duckdb_parquet::EnumType" = type { %"class.duckdb_apache::thrift::TBase" }
%"class.duckdb_parquet::DateType" = type { %"class.duckdb_apache::thrift::TBase" }
%"class.duckdb_parquet::NullType" = type { %"class.duckdb_apache::thrift::TBase" }
%"class.duckdb_parquet::JsonType" = type { %"class.duckdb_apache::thrift::TBase" }
%"class.duckdb_parquet::BsonType" = type { %"class.duckdb_apache::thrift::TBase" }
%"class.duckdb_parquet::UUIDType" = type { %"class.duckdb_apache::thrift::TBase" }
%"class.duckdb_parquet::Float16Type" = type { %"class.duckdb_apache::thrift::TBase" }
%"struct.duckdb_parquet::_LogicalType__isset" = type { i16 }

; Function Attrs: mustprogress nounwind uwtable
define noundef nonnull align 8 dereferenceable(8) ptr @_ZN14duckdb_parquet11NanoSecondsaSERKS0_(ptr noundef nonnull align 8 dereferenceable(8) %0, ptr noundef nonnull align 8 dereferenceable(8) %1) #1 align 2 {
  %3 = alloca ptr, align 8
  %4 = alloca ptr, align 8
  store ptr %0, ptr %3, align 8, !tbaa !174
  store ptr %1, ptr %4, align 8, !tbaa !174
  %5 = load ptr, ptr %3, align 8
  ret ptr %5
}

; Function Attrs: mustprogress nounwind uwtable
define noundef nonnull align 8 dereferenceable(8) ptr @_ZN14duckdb_parquet12MicroSecondsaSERKS0_(ptr noundef nonnull align 8 dereferenceable(8) %0, ptr noundef nonnull align 8 dereferenceable(8) %1) #1 align 2 {
  %3 = alloca ptr, align 8
  %4 = alloca ptr, align 8
  store ptr %0, ptr %3, align 8, !tbaa !171
  store ptr %1, ptr %4, align 8, !tbaa !171
  %5 = load ptr, ptr %3, align 8
  ret ptr %5
}

; Function Attrs: mustprogress nounwind uwtable
define noundef nonnull align 8 dereferenceable(8) ptr @_ZN14duckdb_parquet12MilliSecondsaSERKS0_(ptr noundef nonnull align 8 dereferenceable(8) %0, ptr noundef nonnull align 8 dereferenceable(8) %1) #1 align 2 {
  %3 = alloca ptr, align 8
  %4 = alloca ptr, align 8
  store ptr %0, ptr %3, align 8, !tbaa !168
  store ptr %1, ptr %4, align 8, !tbaa !168
  %5 = load ptr, ptr %3, align 8
  ret ptr %5
}

; Function Attrs: mustprogress nounwind uwtable
define noundef nonnull align 8 dereferenceable(33) ptr @_ZN14duckdb_parquet8TimeUnitaSERKS0_(ptr noundef nonnull align 8 dereferenceable(33) %0, ptr noundef nonnull align 8 dereferenceable(33) %1) #1 align 2 {
  %3 = alloca ptr, align 8
  %4 = alloca ptr, align 8
  store ptr %0, ptr %3, align 8, !tbaa !177
  store ptr %1, ptr %4, align 8, !tbaa !177
  %5 = load ptr, ptr %3, align 8
  %6 = load ptr, ptr %4, align 8, !tbaa !177
  %7 = getelementptr inbounds nuw %"class.duckdb_parquet::TimeUnit", ptr %6, i32 0, i32 1
  %8 = getelementptr inbounds nuw %"class.duckdb_parquet::TimeUnit", ptr %5, i32 0, i32 1
  %9 = call noundef nonnull align 8 dereferenceable(8) ptr @_ZN14duckdb_parquet12MilliSecondsaSERKS0_(ptr noundef nonnull align 8 dereferenceable(8) %8, ptr noundef nonnull align 8 dereferenceable(8) %7) #3
  %10 = load ptr, ptr %4, align 8, !tbaa !177
  %11 = getelementptr inbounds nuw %"class.duckdb_parquet::TimeUnit", ptr %10, i32 0, i32 2
  %12 = getelementptr inbounds nuw %"class.duckdb_parquet::TimeUnit", ptr %5, i32 0, i32 2
  %13 = call noundef nonnull align 8 dereferenceable(8) ptr @_ZN14duckdb_parquet12MicroSecondsaSERKS0_(ptr noundef nonnull align 8 dereferenceable(8) %12, ptr noundef nonnull align 8 dereferenceable(8) %11) #3
  %14 = load ptr, ptr %4, align 8, !tbaa !177
  %15 = getelementptr inbounds nuw %"class.duckdb_parquet::TimeUnit", ptr %14, i32 0, i32 3
  %16 = getelementptr inbounds nuw %"class.duckdb_parquet::TimeUnit", ptr %5, i32 0, i32 3
  %17 = call noundef nonnull align 8 dereferenceable(8) ptr @_ZN14duckdb_parquet11NanoSecondsaSERKS0_(ptr noundef nonnull align 8 dereferenceable(8) %16, ptr noundef nonnull align 8 dereferenceable(8) %15) #3
  %18 = load ptr, ptr %4, align 8, !tbaa !177
  %19 = getelementptr inbounds nuw %"class.duckdb_parquet::TimeUnit", ptr %18, i32 0, i32 4
  %20 = getelementptr inbounds nuw %"class.duckdb_parquet::TimeUnit", ptr %5, i32 0, i32 4
  call void @llvm.memcpy.p0.p0.i64(ptr align 8 %20, ptr align 8 %19, i64 1, i1 false), !tbaa.struct !111
  ret ptr %5
}

; Function Attrs: mustprogress nounwind uwtable
define noundef nonnull align 8 dereferenceable(8) ptr @_ZN14duckdb_parquet11Float16TypeaSERKS0_(ptr noundef nonnull align 8 dereferenceable(8) %0, ptr noundef nonnull align 8 dereferenceable(8) %1) #1 align 2 {
  %3 = alloca ptr, align 8
  %4 = alloca ptr, align 8
  store ptr %0, ptr %3, align 8, !tbaa !146
  store ptr %1, ptr %4, align 8, !tbaa !146
  %5 = load ptr, ptr %3, align 8
  ret ptr %5
}

; Function Attrs: mustprogress nounwind uwtable
define noundef nonnull align 8 dereferenceable(8) ptr @_ZN14duckdb_parquet8UUIDTypeaSERKS0_(ptr noundef nonnull align 8 dereferenceable(8) %0, ptr noundef nonnull align 8 dereferenceable(8) %1) #1 align 2 {
  %3 = alloca ptr, align 8
  %4 = alloca ptr, align 8
  store ptr %0, ptr %3, align 8, !tbaa !131
  store ptr %1, ptr %4, align 8, !tbaa !131
  %5 = load ptr, ptr %3, align 8
  ret ptr %5
}

; Function Attrs: mustprogress nounwind uwtable
define noundef nonnull align 8 dereferenceable(8) ptr @_ZN14duckdb_parquet8BsonTypeaSERKS0_(ptr noundef nonnull align 8 dereferenceable(8) %0, ptr noundef nonnull align 8 dereferenceable(8) %1) #1 align 2 {
  %3 = alloca ptr, align 8
  %4 = alloca ptr, align 8
  store ptr %0, ptr %3, align 8, !tbaa !206
  store ptr %1, ptr %4, align 8, !tbaa !206
  %5 = load ptr, ptr %3, align 8
  ret ptr %5
}

; Function Attrs: mustprogress nounwind uwtable
define noundef nonnull align 8 dereferenceable(8) ptr @_ZN14duckdb_parquet8JsonTypeaSERKS0_(ptr noundef nonnull align 8 dereferenceable(8) %0, ptr noundef nonnull align 8 dereferenceable(8) %1) #1 align 2 {
  %3 = alloca ptr, align 8
  %4 = alloca ptr, align 8
  store ptr %0, ptr %3, align 8, !tbaa !203
  store ptr %1, ptr %4, align 8, !tbaa !203
  %5 = load ptr, ptr %3, align 8
  ret ptr %5
}

; Function Attrs: mustprogress nounwind uwtable
define noundef nonnull align 8 dereferenceable(8) ptr @_ZN14duckdb_parquet8NullTypeaSERKS0_(ptr noundef nonnull align 8 dereferenceable(8) %0, ptr noundef nonnull align 8 dereferenceable(8) %1) #1 align 2 {
  %3 = alloca ptr, align 8
  %4 = alloca ptr, align 8
  store ptr %0, ptr %3, align 8, !tbaa !149
  store ptr %1, ptr %4, align 8, !tbaa !149
  %5 = load ptr, ptr %3, align 8
  ret ptr %5
}

; Function Attrs: mustprogress nounwind uwtable
define noundef nonnull align 8 dereferenceable(10) ptr @_ZN14duckdb_parquet7IntTypeaSERKS0_(ptr noundef nonnull align 8 dereferenceable(10) %0, ptr noundef nonnull align 8 dereferenceable(10) %1) #1 align 2 {
  %3 = alloca ptr, align 8
  %4 = alloca ptr, align 8
  store ptr %0, ptr %3, align 8, !tbaa !197
  store ptr %1, ptr %4, align 8, !tbaa !197
  %5 = load ptr, ptr %3, align 8
  %6 = load ptr, ptr %4, align 8, !tbaa !197
  %7 = getelementptr inbounds nuw %"class.duckdb_parquet::IntType", ptr %6, i32 0, i32 1
  %8 = load i8, ptr %7, align 8, !tbaa !199
  %9 = getelementptr inbounds nuw %"class.duckdb_parquet::IntType", ptr %5, i32 0, i32 1
  store i8 %8, ptr %9, align 8, !tbaa !199
  %10 = load ptr, ptr %4, align 8, !tbaa !197
  %11 = getelementptr inbounds nuw %"class.duckdb_parquet::IntType", ptr %10, i32 0, i32 2
  %12 = load i8, ptr %11, align 1, !tbaa !201, !range !46, !noundef !47
  %13 = trunc i8 %12 to i1
  %14 = getelementptr inbounds nuw %"class.duckdb_parquet::IntType", ptr %5, i32 0, i32 2
  %15 = zext i1 %13 to i8
  store i8 %15, ptr %14, align 1, !tbaa !201
  ret ptr %5
}

; Function Attrs: mustprogress nounwind uwtable
define noundef nonnull align 8 dereferenceable(56) ptr @_ZN14duckdb_parquet13TimestampTypeaSERKS0_(ptr noundef nonnull align 8 dereferenceable(56) %0, ptr noundef nonnull align 8 dereferenceable(56) %1) #1 align 2 {
  %3 = alloca ptr, align 8
  %4 = alloca ptr, align 8
  store ptr %0, ptr %3, align 8, !tbaa !182
  store ptr %1, ptr %4, align 8, !tbaa !182
  %5 = load ptr, ptr %3, align 8
  %6 = load ptr, ptr %4, align 8, !tbaa !182
  %7 = getelementptr inbounds nuw %"class.duckdb_parquet::TimestampType", ptr %6, i32 0, i32 1
  %8 = load i8, ptr %7, align 8, !tbaa !184, !range !46, !noundef !47
  %9 = trunc i8 %8 to i1
  %10 = getelementptr inbounds nuw %"class.duckdb_parquet::TimestampType", ptr %5, i32 0, i32 1
  %11 = zext i1 %9 to i8
  store i8 %11, ptr %10, align 8, !tbaa !184
  %12 = load ptr, ptr %4, align 8, !tbaa !182
  %13 = getelementptr inbounds nuw %"class.duckdb_parquet::TimestampType", ptr %12, i32 0, i32 3
  %14 = getelementptr inbounds nuw %"class.duckdb_parquet::TimestampType", ptr %5, i32 0, i32 3
  %15 = call noundef nonnull align 8 dereferenceable(33) ptr @_ZN14duckdb_parquet8TimeUnitaSERKS0_(ptr noundef nonnull align 8 dereferenceable(33) %14, ptr noundef nonnull align 8 dereferenceable(33) %13) #3
  ret ptr %5
}

; Function Attrs: mustprogress nounwind uwtable
define noundef nonnull align 8 dereferenceable(56) ptr @_ZN14duckdb_parquet8TimeTypeaSERKS0_(ptr noundef nonnull align 8 dereferenceable(56) %0, ptr noundef nonnull align 8 dereferenceable(56) %1) #1 align 2 {
  %3 = alloca ptr, align 8
  %4 = alloca ptr, align 8
  store ptr %0, ptr %3, align 8, !tbaa !192
  store ptr %1, ptr %4, align 8, !tbaa !192
  %5 = load ptr, ptr %3, align 8
  %6 = load ptr, ptr %4, align 8, !tbaa !192
  %7 = getelementptr inbounds nuw %"class.duckdb_parquet::TimeType", ptr %6, i32 0, i32 1
  %8 = load i8, ptr %7, align 8, !tbaa !194, !range !46, !noundef !47
  %9 = trunc i8 %8 to i1
  %10 = getelementptr inbounds nuw %"class.duckdb_parquet::TimeType", ptr %5, i32 0, i32 1
  %11 = zext i1 %9 to i8
  store i8 %11, ptr %10, align 8, !tbaa !194
  %12 = load ptr, ptr %4, align 8, !tbaa !192
  %13 = getelementptr inbounds nuw %"class.duckdb_parquet::TimeType", ptr %12, i32 0, i32 3
  %14 = getelementptr inbounds nuw %"class.duckdb_parquet::TimeType", ptr %5, i32 0, i32 3
  %15 = call noundef nonnull align 8 dereferenceable(33) ptr @_ZN14duckdb_parquet8TimeUnitaSERKS0_(ptr noundef nonnull align 8 dereferenceable(33) %14, ptr noundef nonnull align 8 dereferenceable(33) %13) #3
  ret ptr %5
}

; Function Attrs: mustprogress nounwind uwtable
define noundef nonnull align 8 dereferenceable(8) ptr @_ZN14duckdb_parquet8DateTypeaSERKS0_(ptr noundef nonnull align 8 dereferenceable(8) %0, ptr noundef nonnull align 8 dereferenceable(8) %1) #1 align 2 {
  %3 = alloca ptr, align 8
  %4 = alloca ptr, align 8
  store ptr %0, ptr %3, align 8, !tbaa !143
  store ptr %1, ptr %4, align 8, !tbaa !143
  %5 = load ptr, ptr %3, align 8
  ret ptr %5
}

; Function Attrs: mustprogress nounwind uwtable
define noundef nonnull align 8 dereferenceable(16) ptr @_ZN14duckdb_parquet11DecimalTypeaSERKS0_(ptr noundef nonnull align 8 dereferenceable(16) %0, ptr noundef nonnull align 8 dereferenceable(16) %1) #1 align 2 {
  %3 = alloca ptr, align 8
  %4 = alloca ptr, align 8
  store ptr %0, ptr %3, align 8, !tbaa !152
  store ptr %1, ptr %4, align 8, !tbaa !152
  %5 = load ptr, ptr %3, align 8
  %6 = load ptr, ptr %4, align 8, !tbaa !152
  %7 = getelementptr inbounds nuw %"class.duckdb_parquet::DecimalType", ptr %6, i32 0, i32 1
  %8 = load i32, ptr %7, align 8, !tbaa !154
  %9 = getelementptr inbounds nuw %"class.duckdb_parquet::DecimalType", ptr %5, i32 0, i32 1
  store i32 %8, ptr %9, align 8, !tbaa !154
  %10 = load ptr, ptr %4, align 8, !tbaa !152
  %11 = getelementptr inbounds nuw %"class.duckdb_parquet::DecimalType", ptr %10, i32 0, i32 2
  %12 = load i32, ptr %11, align 4, !tbaa !156
  %13 = getelementptr inbounds nuw %"class.duckdb_parquet::DecimalType", ptr %5, i32 0, i32 2
  store i32 %12, ptr %13, align 4, !tbaa !156
  ret ptr %5
}

; Function Attrs: mustprogress nounwind uwtable
define noundef nonnull align 8 dereferenceable(8) ptr @_ZN14duckdb_parquet8EnumTypeaSERKS0_(ptr noundef nonnull align 8 dereferenceable(8) %0, ptr noundef nonnull align 8 dereferenceable(8) %1) #1 align 2 {
  %3 = alloca ptr, align 8
  %4 = alloca ptr, align 8
  store ptr %0, ptr %3, align 8, !tbaa !140
  store ptr %1, ptr %4, align 8, !tbaa !140
  %5 = load ptr, ptr %3, align 8
  ret ptr %5
}

; Function Attrs: mustprogress nounwind uwtable
define noundef nonnull align 8 dereferenceable(8) ptr @_ZN14duckdb_parquet8ListTypeaSERKS0_(ptr noundef nonnull align 8 dereferenceable(8) %0, ptr noundef nonnull align 8 dereferenceable(8) %1) #1 align 2 {
  %3 = alloca ptr, align 8
  %4 = alloca ptr, align 8
  store ptr %0, ptr %3, align 8, !tbaa !137
  store ptr %1, ptr %4, align 8, !tbaa !137
  %5 = load ptr, ptr %3, align 8
  ret ptr %5
}

; Function Attrs: mustprogress nounwind uwtable
define noundef nonnull align 8 dereferenceable(8) ptr @_ZN14duckdb_parquet7MapTypeaSERKS0_(ptr noundef nonnull align 8 dereferenceable(8) %0, ptr noundef nonnull align 8 dereferenceable(8) %1) #1 align 2 {
  %3 = alloca ptr, align 8
  %4 = alloca ptr, align 8
  store ptr %0, ptr %3, align 8, !tbaa !134
  store ptr %1, ptr %4, align 8, !tbaa !134
  %5 = load ptr, ptr %3, align 8
  ret ptr %5
}

; Function Attrs: mustprogress nounwind uwtable
define noundef nonnull align 8 dereferenceable(8) ptr @_ZN14duckdb_parquet10StringTypeaSERKS0_(ptr noundef nonnull align 8 dereferenceable(8) %0, ptr noundef nonnull align 8 dereferenceable(8) %1) #1 align 2 {
  %3 = alloca ptr, align 8
  %4 = alloca ptr, align 8
  store ptr %0, ptr %3, align 8, !tbaa !128
  store ptr %1, ptr %4, align 8, !tbaa !128
  %5 = load ptr, ptr %3, align 8
  ret ptr %5
}

; Function Attrs: mustprogress nounwind uwtable
define noundef nonnull align 8 dereferenceable(234) ptr @_ZN14duckdb_parquet11LogicalTypeaSERKS0_(ptr noundef nonnull align 8 dereferenceable(234) %0, ptr noundef nonnull align 8 dereferenceable(234) %1) #1 align 2 {
  %3 = alloca ptr, align 8
  %4 = alloca ptr, align 8
  store ptr %0, ptr %3, align 8, !tbaa !209
  store ptr %1, ptr %4, align 8, !tbaa !209
  %5 = load ptr, ptr %3, align 8
  %6 = load ptr, ptr %4, align 8, !tbaa !209
  %7 = getelementptr inbounds nuw %"class.duckdb_parquet::LogicalType", ptr %6, i32 0, i32 1
  %8 = getelementptr inbounds nuw %"class.duckdb_parquet::LogicalType", ptr %5, i32 0, i32 1
  %9 = call noundef nonnull align 8 dereferenceable(8) ptr @_ZN14duckdb_parquet10StringTypeaSERKS0_(ptr noundef nonnull align 8 dereferenceable(8) %8, ptr noundef nonnull align 8 dereferenceable(8) %7) #3
  %10 = load ptr, ptr %4, align 8, !tbaa !209
  %11 = getelementptr inbounds nuw %"class.duckdb_parquet::LogicalType", ptr %10, i32 0, i32 2
  %12 = getelementptr inbounds nuw %"class.duckdb_parquet::LogicalType", ptr %5, i32 0, i32 2
  %13 = call noundef nonnull align 8 dereferenceable(8) ptr @_ZN14duckdb_parquet7MapTypeaSERKS0_(ptr noundef nonnull align 8 dereferenceable(8) %12, ptr noundef nonnull align 8 dereferenceable(8) %11) #3
  %14 = load ptr, ptr %4, align 8, !tbaa !209
  %15 = getelementptr inbounds nuw %"class.duckdb_parquet::LogicalType", ptr %14, i32 0, i32 3
  %16 = getelementptr inbounds nuw %"class.duckdb_parquet::LogicalType", ptr %5, i32 0, i32 3
  %17 = call noundef nonnull align 8 dereferenceable(8) ptr @_ZN14duckdb_parquet8ListTypeaSERKS0_(ptr noundef nonnull align 8 dereferenceable(8) %16, ptr noundef nonnull align 8 dereferenceable(8) %15) #3
  %18 = load ptr, ptr %4, align 8, !tbaa !209
  %19 = getelementptr inbounds nuw %"class.duckdb_parquet::LogicalType", ptr %18, i32 0, i32 4
  %20 = getelementptr inbounds nuw %"class.duckdb_parquet::LogicalType", ptr %5, i32 0, i32 4
  %21 = call noundef nonnull align 8 dereferenceable(8) ptr @_ZN14duckdb_parquet8EnumTypeaSERKS0_(ptr noundef nonnull align 8 dereferenceable(8) %20, ptr noundef nonnull align 8 dereferenceable(8) %19) #3
  %22 = load ptr, ptr %4, align 8, !tbaa !209
  %23 = getelementptr inbounds nuw %"class.duckdb_parquet::LogicalType", ptr %22, i32 0, i32 5
  %24 = getelementptr inbounds nuw %"class.duckdb_parquet::LogicalType", ptr %5, i32 0, i32 5
  %25 = call noundef nonnull align 8 dereferenceable(16) ptr @_ZN14duckdb_parquet11DecimalTypeaSERKS0_(ptr noundef nonnull align 8 dereferenceable(16) %24, ptr noundef nonnull align 8 dereferenceable(16) %23) #3
  %26 = load ptr, ptr %4, align 8, !tbaa !209
  %27 = getelementptr inbounds nuw %"class.duckdb_parquet::LogicalType", ptr %26, i32 0, i32 6
  %28 = getelementptr inbounds nuw %"class.duckdb_parquet::LogicalType", ptr %5, i32 0, i32 6
  %29 = call noundef nonnull align 8 dereferenceable(8) ptr @_ZN14duckdb_parquet8DateTypeaSERKS0_(ptr noundef nonnull align 8 dereferenceable(8) %28, ptr noundef nonnull align 8 dereferenceable(8) %27) #3
  %30 = load ptr, ptr %4, align 8, !tbaa !209
  %31 = getelementptr inbounds nuw %"class.duckdb_parquet::LogicalType", ptr %30, i32 0, i32 7
  %32 = getelementptr inbounds nuw %"class.duckdb_parquet::LogicalType", ptr %5, i32 0, i32 7
  %33 = call noundef nonnull align 8 dereferenceable(56) ptr @_ZN14duckdb_parquet8TimeTypeaSERKS0_(ptr noundef nonnull align 8 dereferenceable(56) %32, ptr noundef nonnull align 8 dereferenceable(56) %31) #3
  %34 = load ptr, ptr %4, align 8, !tbaa !209
  %35 = getelementptr inbounds nuw %"class.duckdb_parquet::LogicalType", ptr %34, i32 0, i32 8
  %36 = getelementptr inbounds nuw %"class.duckdb_parquet::LogicalType", ptr %5, i32 0, i32 8
  %37 = call noundef nonnull align 8 dereferenceable(56) ptr @_ZN14duckdb_parquet13TimestampTypeaSERKS0_(ptr noundef nonnull align 8 dereferenceable(56) %36, ptr noundef nonnull align 8 dereferenceable(56) %35) #3
  %38 = load ptr, ptr %4, align 8, !tbaa !209
  %39 = getelementptr inbounds nuw %"class.duckdb_parquet::LogicalType", ptr %38, i32 0, i32 9
  %40 = getelementptr inbounds nuw %"class.duckdb_parquet::LogicalType", ptr %5, i32 0, i32 9
  %41 = call noundef nonnull align 8 dereferenceable(10) ptr @_ZN14duckdb_parquet7IntTypeaSERKS0_(ptr noundef nonnull align 8 dereferenceable(10) %40, ptr noundef nonnull align 8 dereferenceable(10) %39) #3
  %42 = load ptr, ptr %4, align 8, !tbaa !209
  %43 = getelementptr inbounds nuw %"class.duckdb_parquet::LogicalType", ptr %42, i32 0, i32 10
  %44 = getelementptr inbounds nuw %"class.duckdb_parquet::LogicalType", ptr %5, i32 0, i32 10
  %45 = call noundef nonnull align 8 dereferenceable(8) ptr @_ZN14duckdb_parquet8NullTypeaSERKS0_(ptr noundef nonnull align 8 dereferenceable(8) %44, ptr noundef nonnull align 8 dereferenceable(8) %43) #3
  %46 = load ptr, ptr %4, align 8, !tbaa !209
  %47 = getelementptr inbounds nuw %"class.duckdb_parquet::LogicalType", ptr %46, i32 0, i32 11
  %48 = getelementptr inbounds nuw %"class.duckdb_parquet::LogicalType", ptr %5, i32 0, i32 11
  %49 = call noundef nonnull align 8 dereferenceable(8) ptr @_ZN14duckdb_parquet8JsonTypeaSERKS0_(ptr noundef nonnull align 8 dereferenceable(8) %48, ptr noundef nonnull align 8 dereferenceable(8) %47) #3
  %50 = load ptr, ptr %4, align 8, !tbaa !209
  %51 = getelementptr inbounds nuw %"class.duckdb_parquet::LogicalType", ptr %50, i32 0, i32 12
  %52 = getelementptr inbounds nuw %"class.duckdb_parquet::LogicalType", ptr %5, i32 0, i32 12
  %53 = call noundef nonnull align 8 dereferenceable(8) ptr @_ZN14duckdb_parquet8BsonTypeaSERKS0_(ptr noundef nonnull align 8 dereferenceable(8) %52, ptr noundef nonnull align 8 dereferenceable(8) %51) #3
  %54 = load ptr, ptr %4, align 8, !tbaa !209
  %55 = getelementptr inbounds nuw %"class.duckdb_parquet::LogicalType", ptr %54, i32 0, i32 13
  %56 = getelementptr inbounds nuw %"class.duckdb_parquet::LogicalType", ptr %5, i32 0, i32 13
  %57 = call noundef nonnull align 8 dereferenceable(8) ptr @_ZN14duckdb_parquet8UUIDTypeaSERKS0_(ptr noundef nonnull align 8 dereferenceable(8) %56, ptr noundef nonnull align 8 dereferenceable(8) %55) #3
  %58 = load ptr, ptr %4, align 8, !tbaa !209
  %59 = getelementptr inbounds nuw %"class.duckdb_parquet::LogicalType", ptr %58, i32 0, i32 14
  %60 = getelementptr inbounds nuw %"class.duckdb_parquet::LogicalType", ptr %5, i32 0, i32 14
  %61 = call noundef nonnull align 8 dereferenceable(8) ptr @_ZN14duckdb_parquet11Float16TypeaSERKS0_(ptr noundef nonnull align 8 dereferenceable(8) %60, ptr noundef nonnull align 8 dereferenceable(8) %59) #3
  %62 = load ptr, ptr %4, align 8, !tbaa !209
  %63 = getelementptr inbounds nuw %"class.duckdb_parquet::LogicalType", ptr %62, i32 0, i32 15
  %64 = getelementptr inbounds nuw %"class.duckdb_parquet::LogicalType", ptr %5, i32 0, i32 15
  call void @llvm.memcpy.p0.p0.i64(ptr align 8 %64, ptr align 8 %63, i64 2, i1 false), !tbaa.struct !214
  ret ptr %5
}