; Function Attrs: mustprogress nofree norecurse nosync nounwind willreturn memory(argmem: readwrite) uwtable
define noundef nonnull align 8 dereferenceable(234) ptr @_ZN14duckdb_parquet11LogicalTypeaSERKS0_(ptr noundef nonnull returned writeonly align 8 captures(ret: address, provenance) dereferenceable(234) initializes((48, 56), (72, 73), (112, 113), (128, 129), (168, 169), (184, 186), (232, 234)) %0, ptr noundef nonnull readonly align 8 captures(none) dereferenceable(234) %1) local_unnamed_addr #10 align 2 {
  %3 = getelementptr inbounds nuw i8, ptr %1, i64 48
  %4 = load i32, ptr %3, align 8, !tbaa !162
  %5 = getelementptr inbounds nuw i8, ptr %0, i64 48
  store i32 %4, ptr %5, align 8, !tbaa !162
  %6 = getelementptr inbounds nuw i8, ptr %1, i64 52
  %7 = load i32, ptr %6, align 4, !tbaa !164
  %8 = getelementptr inbounds nuw i8, ptr %0, i64 52
  store i32 %7, ptr %8, align 4, !tbaa !164
  %9 = getelementptr inbounds nuw i8, ptr %1, i64 72
  %10 = load i8, ptr %9, align 8, !tbaa !213, !range !137, !noundef !138
  %11 = getelementptr inbounds nuw i8, ptr %0, i64 72
  store i8 %10, ptr %11, align 8, !tbaa !213
  %12 = getelementptr inbounds nuw i8, ptr %1, i64 112
  %13 = getelementptr inbounds nuw i8, ptr %0, i64 112
  %14 = load i8, ptr %12, align 8, !tbaa !38
  store i8 %14, ptr %13, align 8, !tbaa !38
  %15 = getelementptr inbounds nuw i8, ptr %1, i64 128
  %16 = load i8, ptr %15, align 8, !tbaa !198, !range !137, !noundef !138
  %17 = getelementptr inbounds nuw i8, ptr %0, i64 128
  store i8 %16, ptr %17, align 8, !tbaa !198
  %18 = getelementptr inbounds nuw i8, ptr %1, i64 168
  %19 = getelementptr inbounds nuw i8, ptr %0, i64 168
  %20 = load i8, ptr %18, align 8, !tbaa !38
  store i8 %20, ptr %19, align 8, !tbaa !38
  %21 = getelementptr inbounds nuw i8, ptr %1, i64 184
  %22 = load i8, ptr %21, align 8, !tbaa !216
  %23 = getelementptr inbounds nuw i8, ptr %0, i64 184
  store i8 %22, ptr %23, align 8, !tbaa !216
  %24 = getelementptr inbounds nuw i8, ptr %1, i64 185
  %25 = load i8, ptr %24, align 1, !tbaa !218, !range !137, !noundef !138
  %26 = getelementptr inbounds nuw i8, ptr %0, i64 185
  store i8 %25, ptr %26, align 1, !tbaa !218
  %27 = getelementptr inbounds nuw i8, ptr %1, i64 232
  %28 = getelementptr inbounds nuw i8, ptr %0, i64 232
  %29 = load i16, ptr %27, align 8, !tbaa !38
  store i16 %29, ptr %28, align 8, !tbaa !38
  ret ptr %0
}